; Function Attrs: mustprogress nounwind uwtable
define internal fastcc void @_ZN9grpc_core12_GLOBAL__N_119ServiceConfigChoiceD2Ev(ptr noundef nonnull align 8 dereferenceable(104) %this) unnamed_addr #4 align 2 personality ptr @__gxx_personality_v0 {
entry:
  %service_config = getelementptr inbounds i8, ptr %this, i64 56
  %_M_parent.i.i.i = getelementptr inbounds i8, ptr %this, i64 72
  %0 = load ptr, ptr %_M_parent.i.i.i, align 8
  invoke void @_ZNSt8_Rb_treeINSt7__cxx1112basic_stringIcSt11char_traitsIcESaIcEEESt4pairIKS5_N9grpc_core12experimental4JsonEESt10_Select1stISB_ESt4lessIS5_ESaISB_EE8_M_eraseEPSt13_Rb_tree_nodeISB_E(ptr noundef nonnull align 8 dereferenceable(48) %service_config, ptr noundef %0)
          to label %_ZNSt3mapINSt7__cxx1112basic_stringIcSt11char_traitsIcESaIcEEEN9grpc_core12experimental4JsonESt4lessIS5_ESaISt4pairIKS5_S8_EEED2Ev.exit unwind label %terminate.lpad.i.i

terminate.lpad.i.i:                               ; preds = %entry
  %1 = landingpad { ptr, i32 }
          catch ptr null
  %2 = extractvalue { ptr, i32 } %1, 0
  tail call void @__clang_call_terminate(ptr %2) #20
  unreachable

_ZNSt3mapINSt7__cxx1112basic_stringIcSt11char_traitsIcESaIcEEEN9grpc_core12experimental4JsonESt4lessIS5_ESaISt4pairIKS5_S8_EEED2Ev.exit: ; preds = %entry
  %client_hostname = getelementptr inbounds i8, ptr %this, i64 32
  %3 = load ptr, ptr %client_hostname, align 8
  %_M_finish.i = getelementptr inbounds i8, ptr %this, i64 40
  %4 = load ptr, ptr %_M_finish.i, align 8
  %cmp.not3.i.i.i.i = icmp eq ptr %3, %4
  br i1 %cmp.not3.i.i.i.i, label %invoke.cont.i, label %for.body.i.i.i.i

for.body.i.i.i.i:                                 ; preds = %_ZNSt3mapINSt7__cxx1112basic_stringIcSt11char_traitsIcESaIcEEEN9grpc_core12experimental4JsonESt4lessIS5_ESaISt4pairIKS5_S8_EEED2Ev.exit, %for.body.i.i.i.i
  %__first.addr.04.i.i.i.i = phi ptr [ %incdec.ptr.i.i.i.i, %for.body.i.i.i.i ], [ %3, %_ZNSt3mapINSt7__cxx1112basic_stringIcSt11char_traitsIcESaIcEEEN9grpc_core12experimental4JsonESt4lessIS5_ESaISt4pairIKS5_S8_EEED2Ev.exit ]
  tail call void @_ZNSt7__cxx1112basic_stringIcSt11char_traitsIcESaIcEED1Ev(ptr noundef nonnull align 8 dereferenceable(32) %__first.addr.04.i.i.i.i) #19
  %incdec.ptr.i.i.i.i = getelementptr inbounds i8, ptr %__first.addr.04.i.i.i.i, i64 32
  %cmp.not.i.i.i.i = icmp eq ptr %incdec.ptr.i.i.i.i, %4
  br i1 %cmp.not.i.i.i.i, label %invoke.contthread-pre-split.i, label %for.body.i.i.i.i, !llvm.loop !9

invoke.contthread-pre-split.i:                    ; preds = %for.body.i.i.i.i
  %.pr.i = load ptr, ptr %client_hostname, align 8
  br label %invoke.cont.i

invoke.cont.i:                                    ; preds = %invoke.contthread-pre-split.i, %_ZNSt3mapINSt7__cxx1112basic_stringIcSt11char_traitsIcESaIcEEEN9grpc_core12experimental4JsonESt4lessIS5_ESaISt4pairIKS5_S8_EEED2Ev.exit
  %5 = phi ptr [ %.pr.i, %invoke.contthread-pre-split.i ], [ %3, %_ZNSt3mapINSt7__cxx1112basic_stringIcSt11char_traitsIcESaIcEEEN9grpc_core12experimental4JsonESt4lessIS5_ESaISt4pairIKS5_S8_EEED2Ev.exit ]
  %tobool.not.i.i.i = icmp eq ptr %5, null
  br i1 %tobool.not.i.i.i, label %_ZNSt6vectorINSt7__cxx1112basic_stringIcSt11char_traitsIcESaIcEEESaIS5_EED2Ev.exit, label %if.then.i.i.i

if.then.i.i.i:                                    ; preds = %invoke.cont.i
  tail call void @_ZdlPv(ptr noundef nonnull %5) #22
  br label %_ZNSt6vectorINSt7__cxx1112basic_stringIcSt11char_traitsIcESaIcEEESaIS5_EED2Ev.exit

_ZNSt6vectorINSt7__cxx1112basic_stringIcSt11char_traitsIcESaIcEEESaIS5_EED2Ev.exit: ; preds = %invoke.cont.i, %if.then.i.i.i
  %6 = load ptr, ptr %this, align 8
  %_M_finish.i1 = getelementptr inbounds i8, ptr %this, i64 8
  %7 = load ptr, ptr %_M_finish.i1, align 8
  %cmp.not3.i.i.i.i2 = icmp eq ptr %6, %7
  br i1 %cmp.not3.i.i.i.i2, label %invoke.cont.i9, label %for.body.i.i.i.i3

for.body.i.i.i.i3:                                ; preds = %_ZNSt6vectorINSt7__cxx1112basic_stringIcSt11char_traitsIcESaIcEEESaIS5_EED2Ev.exit, %for.body.i.i.i.i3
  %__first.addr.04.i.i.i.i4 = phi ptr [ %incdec.ptr.i.i.i.i5, %for.body.i.i.i.i3 ], [ %6, %_ZNSt6vectorINSt7__cxx1112basic_stringIcSt11char_traitsIcESaIcEEESaIS5_EED2Ev.exit ]
  tail call void @_ZNSt7__cxx1112basic_stringIcSt11char_traitsIcESaIcEED1Ev(ptr noundef nonnull align 8 dereferenceable(32) %__first.addr.04.i.i.i.i4) #19
  %incdec.ptr.i.i.i.i5 = getelementptr inbounds i8, ptr %__first.addr.04.i.i.i.i4, i64 32
  %cmp.not.i.i.i.i6 = icmp eq ptr %incdec.ptr.i.i.i.i5, %7
  br i1 %cmp.not.i.i.i.i6, label %invoke.contthread-pre-split.i7, label %for.body.i.i.i.i3, !llvm.loop !9

invoke.contthread-pre-split.i7:                   ; preds = %for.body.i.i.i.i3
  %.pr.i8 = load ptr, ptr %this, align 8
  br label %invoke.cont.i9

invoke.cont.i9:                                   ; preds = %invoke.contthread-pre-split.i7, %_ZNSt6vectorINSt7__cxx1112basic_stringIcSt11char_traitsIcESaIcEEESaIS5_EED2Ev.exit
  %8 = phi ptr [ %.pr.i8, %invoke.contthread-pre-split.i7 ], [ %6, %_ZNSt6vectorINSt7__cxx1112basic_stringIcSt11char_traitsIcESaIcEEESaIS5_EED2Ev.exit ]
  %tobool.not.i.i.i10 = icmp eq ptr %8, null
  br i1 %tobool.not.i.i.i10, label %_ZNSt6vectorINSt7__cxx1112basic_stringIcSt11char_traitsIcESaIcEEESaIS5_EED2Ev.exit12, label %if.then.i.i.i11

if.then.i.i.i11:                                  ; preds = %invoke.cont.i9
  tail call void @_ZdlPv(ptr noundef nonnull %8) #22
  br label %_ZNSt6vectorINSt7__cxx1112basic_stringIcSt11char_traitsIcESaIcEEESaIS5_EED2Ev.exit12

_ZNSt6vectorINSt7__cxx1112basic_stringIcSt11char_traitsIcESaIcEEESaIS5_EED2Ev.exit12: ; preds = %invoke.cont.i9, %if.then.i.i.i11
  ret void
}